Certificate:
    Data:
        Version: 3 (0x2)
        Serial Number:
            83:26:54:14:e3:9c:df:7a:59:ce:01:7e:ba:66:4a:1f
    Signature Algorithm: sha256WithRSAEncryption
        Issuer: CN=Easy-RSA CA
        Validity
            Not Before: Jan 20 17:31:01 2020 GMT
            Not After : Jan  4 17:31:01 2023 GMT
        Subject: CN=192.168.10.10
        Subject Public Key Info:
            Public Key Algorithm: rsaEncryption
                Public-Key: (2048 bit)
                Modulus:
                    00:b2:45:57:d4:90:55:be:c1:7d:5c:98:71:50:d1:
                    42:11:9e:4a:55:6f:24:fa:d2:c7:9b:aa:f1:f3:ee:
                    d9:75:43:00:e2:dc:9f:e9:7e:29:76:f7:7f:9f:b7:
                    2f:16:2e:3c:28:f4:22:79:37:d1:23:18:54:90:8d:
                    bf:a4:4e:3e:16:51:4d:ce:5f:89:40:b5:76:8e:ea:
                    1a:87:fb:30:6a:6b:4e:7e:21:d5:30:14:5b:c4:dc:
                    dc:67:45:57:33:35:ae:00:75:34:da:ff:e3:e8:12:
                    57:fe:20:17:aa:dd:6e:81:41:85:a1:d8:a1:5c:e0:
                    20:25:37:4e:19:a1:9b:16:a7:ba:40:bf:21:ed:bd:
                    98:c8:6a:17:c8:1a:01:51:3a:6f:62:f9:68:6f:4d:
                    4c:4c:50:4e:32:c4:33:42:f6:d9:24:01:74:a8:6b:
                    d6:2c:b7:7d:b6:da:b2:1d:d0:af:04:a9:79:75:9b:
                    c3:22:9f:e8:8a:1c:40:e9:57:a3:81:93:d1:8f:21:
                    50:fe:b4:a6:83:c0:5b:76:9b:c5:92:92:b7:58:f5:
                    9b:c5:7c:f0:24:0c:e5:2d:3f:39:e9:7d:6e:18:d5:
                    90:ab:8c:a5:f4:0f:58:2e:ed:57:cf:41:77:4f:cc:
                    85:6b:a0:f3:fd:e1:07:45:48:a2:21:b5:2e:7f:26:
                    c8:21
                Exponent: 65537 (0x10001)
        X509v3 extensions:
            X509v3 Basic Constraints: 
                CA:FALSE
            X509v3 Subject Key Identifier: 
                5E:2C:4D:93:86:49:6B:7A:20:30:26:9D:C4:44:41:DD:69:3D:10:4B
            X509v3 Authority Key Identifier: 
                keyid:87:72:85:03:F2:0F:71:D6:FA:B3:FB:40:98:99:EB:F2:4B:3F:4D:0A
                DirName:/CN=Easy-RSA CA
                serial:E2:47:83:99:DB:16:2A:FA

            X509v3 Extended Key Usage: 
                TLS Web Server Authentication
            X509v3 Key Usage: 
                Digital Signature, Key Encipherment
            X509v3 Subject Alternative Name: 
                DNS:192.168.10.10
    Signature Algorithm: sha256WithRSAEncryption
         66:3d:13:25:47:8e:1b:2a:cb:1c:73:c3:47:0f:bb:33:18:f9:
         2e:a1:6b:9a:7c:ed:91:ac:10:82:53:67:07:db:f7:a7:30:1c:
         70:99:24:0d:c6:08:98:23:41:fa:53:bc:b6:28:fe:28:c5:7b:
         09:b2:9b:87:cd:93:77:61:1c:ce:22:16:2a:c2:de:f0:53:56:
         73:d2:88:fa:2b:e8:7a:5a:57:7b:aa:53:9a:5c:04:5c:84:cc:
         06:e7:67:cf:b8:ca:84:65:b1:11:a6:82:1f:36:92:e6:ab:67:
         a3:8f:e2:0e:17:6f:3d:b2:16:bb:fb:fd:f1:a7:36:b8:99:27:
         6e:f3:9d:6a:3e:f3:d3:7b:1d:1d:db:1a:93:47:85:97:72:bc:
         bb:41:f4:85:bc:cb:18:a7:ce:f6:d1:4a:65:41:bd:4e:3d:32:
         2c:d0:d0:91:86:5d:ad:b1:5e:3d:37:f8:c8:58:61:32:36:db:
         ef:3e:8a:30:07:66:5e:d6:e2:2c:c1:35:f9:07:86:5a:b7:53:
         18:6c:bc:ad:af:94:18:c2:df:25:6d:42:67:1a:28:89:00:89:
         4a:55:0e:98:1f:4d:ab:23:ee:29:de:56:d4:d8:dc:d6:64:c6:
         af:c3:ca:d8:e6:86:5a:c7:33:b8:c5:36:b9:6b:c7:c3:73:08:
         fe:43:37:20
-----BEGIN CERTIFICATE-----
MIIDazCCAlOgAwIBAgIRAIMmVBTjnN96Wc4BfrpmSh8wDQYJKoZIhvcNAQELBQAw
FjEUMBIGA1UEAwwLRWFzeS1SU0EgQ0EwHhcNMjAwMTIwMTczMTAxWhcNMjMwMTA0
MTczMTAxWjAYMRYwFAYDVQQDDA0xOTIuMTY4LjEwLjEwMIIBIjANBgkqhkiG9w0B
AQEFAAOCAQ8AMIIBCgKCAQEAskVX1JBVvsF9XJhxUNFCEZ5KVW8k+tLHm6rx8+7Z
dUMA4tyf6X4pdvd/n7cvFi48KPQieTfRIxhUkI2/pE4+FlFNzl+JQLV2juoah/sw
amtOfiHVMBRbxNzcZ0VXMzWuAHU02v/j6BJX/iAXqt1ugUGFodihXOAgJTdOGaGb
Fqe6QL8h7b2YyGoXyBoBUTpvYvlob01MTFBOMsQzQvbZJAF0qGvWLLd9ttqyHdCv
BKl5dZvDIp/oihxA6VejgZPRjyFQ/rSmg8BbdpvFkpK3WPWbxXzwJAzlLT856X1u
GNWQq4yl9A9YLu1Xz0F3T8yFa6Dz/eEHRUiiIbUufybIIQIDAQABo4GxMIGuMAkG
A1UdEwQCMAAwHQYDVR0OBBYEFF4sTZOGSWt6IDAmncREQd1pPRBLMEYGA1UdIwQ/
MD2AFIdyhQPyD3HW+rP7QJiZ6/JLP00KoRqkGDAWMRQwEgYDVQQDDAtFYXN5LVJT
QSBDQYIJAOJHg5nbFir6MBMGA1UdJQQMMAoGCCsGAQUFBwMBMAsGA1UdDwQEAwIF
oDAYBgNVHREEETAPgg0xOTIuMTY4LjEwLjEwMA0GCSqGSIb3DQEBCwUAA4IBAQBm
PRMlR44bKsscc8NHD7szGPkuoWuafO2RrBCCU2cH2/enMBxwmSQNxgiYI0H6U7y2
KP4oxXsJspuHzZN3YRzOIhYqwt7wU1Zz0oj6K+h6Wld7qlOaXARchMwG52fPuMqE
ZbERpoIfNpLmq2ejj+IOF289sha7+/3xpza4mSdu851qPvPTex0d2xqTR4WXcry7
QfSFvMsYp8720UplQb1OPTIs0NCRhl2tsV49N/jIWGEyNtvvPoowB2Ze1uIswTX5
B4Zat1MYbLytr5QYwt8lbUJnGiiJAIlKVQ6YH02rI+4p3lbU2NzWZMavw8rY5oZa
xzO4xTa5a8fDcwj+Qzcg
-----END CERTIFICATE-----
